target datalayout = "e-m:e-p270:32:32-p271:32:32-p272:64:64-i64:64-i128:128-f80:128-n8:16:32:64-S128"
target triple = "x86_64-pc-linux-gnu"

%struct.pmix_mca_base_framework_t = type { ptr, ptr, ptr, ptr, ptr, ptr, i32, i32, ptr, ptr, i32, i32, %struct.pmix_list_t, %struct.pmix_list_t }
%struct.pmix_list_t = type { %struct.pmix_object_t, %struct.pmix_list_item_t, i64 }
%struct.pmix_object_t = type { %union.pthread_mutex_t, ptr, i32, %struct.pmix_tma }
%union.pthread_mutex_t = type { %struct.__pthread_mutex_s }
%struct.__pthread_mutex_s = type { i32, i32, i32, i32, i32, i16, i16, %struct.__pthread_internal_list }
%struct.__pthread_internal_list = type { ptr, ptr }
%struct.pmix_tma = type { ptr, ptr, ptr, ptr, ptr, ptr, ptr, ptr }
%struct.pmix_list_item_t = type { %struct.pmix_object_t, ptr, ptr, i32 }
%struct.pmix_output_desc_t = type { i8, i8, i32, i8, i32, ptr, ptr, i32, ptr, i32, i8, i8, i8, i8, ptr, i32, i32 }

@pmix_pcompress_base_framework = external global %struct.pmix_mca_base_framework_t, align 8
@pmix_output_info = external global [0 x %struct.pmix_output_desc_t], align 8
@.str.2 = private unnamed_addr constant [41 x i8] c"DECOMPRESSING INPUT OF LEN %lu OUTPUT %u\00", align 1

; Function Attrs: nounwind uwtable
define internal zeroext i1 @zlib_decompress(ptr noundef %0, ptr noundef %1, ptr noundef %2, i64 noundef %3) #0 {
  %5 = alloca i1, align 1
  %6 = alloca ptr, align 8
  %7 = alloca ptr, align 8
  %8 = alloca ptr, align 8
  %9 = alloca i64, align 8
  %10 = alloca i32, align 4
  %11 = alloca i8, align 1
  %12 = alloca ptr, align 8
  %13 = alloca i32, align 4
  store ptr %0, ptr %6, align 8, !tbaa !10
  store ptr %1, ptr %7, align 8, !tbaa !12
  store ptr %2, ptr %8, align 8, !tbaa !3
  store i64 %3, ptr %9, align 8, !tbaa !8
  call void @llvm.lifetime.start.p0(i64 4, ptr %10) #8
  call void @llvm.lifetime.start.p0(i64 1, ptr %11) #8
  call void @llvm.lifetime.start.p0(i64 8, ptr %12) #8
  %14 = load ptr, ptr %7, align 8, !tbaa !12
  store i64 0, ptr %14, align 8, !tbaa !8
  %15 = load ptr, ptr %8, align 8, !tbaa !3
  call void @llvm.memcpy.p0.p0.i64(ptr align 4 %10, ptr align 1 %15, i64 4, i1 false)
  %16 = load i32, ptr getelementptr inbounds nuw (%struct.pmix_mca_base_framework_t, ptr @pmix_pcompress_base_framework, i32 0, i32 11), align 4, !tbaa !25
  %17 = icmp sge i32 %16, 0
  br i1 %17, label %18, label %32

18:                                               ; preds = %4
  %19 = load i32, ptr getelementptr inbounds nuw (%struct.pmix_mca_base_framework_t, ptr @pmix_pcompress_base_framework, i32 0, i32 11), align 4, !tbaa !25
  %20 = icmp slt i32 %19, 64
  br i1 %20, label %21, label %32

21:                                               ; preds = %18
  %22 = load i32, ptr getelementptr inbounds nuw (%struct.pmix_mca_base_framework_t, ptr @pmix_pcompress_base_framework, i32 0, i32 11), align 4, !tbaa !25
  %23 = sext i32 %22 to i64
  %24 = getelementptr inbounds [0 x %struct.pmix_output_desc_t], ptr @pmix_output_info, i64 0, i64 %23
  %25 = getelementptr inbounds nuw %struct.pmix_output_desc_t, ptr %24, i32 0, i32 2
  %26 = load i32, ptr %25, align 4, !tbaa !34
  %27 = icmp sge i32 %26, 2
  br i1 %27, label %28, label %32

28:                                               ; preds = %21
  %29 = load i32, ptr getelementptr inbounds nuw (%struct.pmix_mca_base_framework_t, ptr @pmix_pcompress_base_framework, i32 0, i32 11), align 4, !tbaa !25
  %30 = load i64, ptr %9, align 8, !tbaa !8
  %31 = load i32, ptr %10, align 4, !tbaa !17
  call void (i32, ptr, ...) @pmix_output(i32 noundef %29, ptr noundef @.str.2, i64 noundef %30, i32 noundef %31)
  br label %32

32:                                               ; preds = %28, %21, %18, %4
  %33 = load ptr, ptr %8, align 8, !tbaa !3
  %34 = getelementptr inbounds nuw i8, ptr %33, i64 4
  store ptr %34, ptr %12, align 8, !tbaa !3
  %35 = load ptr, ptr %6, align 8, !tbaa !10
  %36 = load i32, ptr %10, align 4, !tbaa !17
  %37 = zext i32 %36 to i64
  %38 = load ptr, ptr %12, align 8, !tbaa !3
  %39 = load i64, ptr %9, align 8, !tbaa !8
  %40 = call zeroext i1 @doit(ptr noundef %35, i64 noundef %37, ptr noundef %38, i64 noundef %39)
  %41 = zext i1 %40 to i8
  store i8 %41, ptr %11, align 1, !tbaa !36
  %42 = load i8, ptr %11, align 1, !tbaa !36, !range !37, !noundef !38
  %43 = trunc i8 %42 to i1
  br i1 %43, label %44, label %48

44:                                               ; preds = %32
  %45 = load i32, ptr %10, align 4, !tbaa !17
  %46 = zext i32 %45 to i64
  %47 = load ptr, ptr %7, align 8, !tbaa !12
  store i64 %46, ptr %47, align 8, !tbaa !8
  store i1 true, ptr %5, align 1
  store i32 1, ptr %13, align 4
  br label %49

48:                                               ; preds = %32
  store i1 false, ptr %5, align 1
  store i32 1, ptr %13, align 4
  br label %49

49:                                               ; preds = %48, %44
  call void @llvm.lifetime.end.p0(i64 8, ptr %12) #8
  call void @llvm.lifetime.end.p0(i64 1, ptr %11) #8
  call void @llvm.lifetime.end.p0(i64 4, ptr %10) #8
  %50 = load i1, ptr %5, align 1
  ret i1 %50
}