; Function Attrs: nounwind uwtable
define internal noundef zeroext i1 @zlib_decompress(ptr noundef writeonly captures(none) initializes((0, 8)) %0, ptr noundef writeonly captures(none) initializes((0, 8)) %1, ptr noundef %2, i64 noundef %3) #0 {
  store i64 0, ptr %1, align 8, !tbaa !8
  %.0.copyload = load i32, ptr %2, align 1
  %5 = load i32, ptr getelementptr inbounds nuw (i8, ptr @pmix_pcompress_base_framework, i64 76), align 4, !tbaa !20
  %or.cond = icmp ult i32 %5, 64
  br i1 %or.cond, label %6, label %12

6:                                                ; preds = %4
  %7 = zext nneg i32 %5 to i64
  %8 = getelementptr inbounds nuw [0 x %struct.pmix_output_desc_t], ptr @pmix_output_info, i64 0, i64 %7, i32 2
  %9 = load i32, ptr %8, align 4, !tbaa !29
  %10 = icmp sgt i32 %9, 1
  br i1 %10, label %11, label %12

11:                                               ; preds = %6
  tail call void (i32, ptr, ...) @pmix_output(i32 noundef %5, ptr noundef nonnull @.str.2, i64 noundef %3, i32 noundef %.0.copyload) #9
  br label %12

12:                                               ; preds = %11, %6, %4
  %13 = getelementptr inbounds nuw i8, ptr %2, i64 4
  %14 = zext i32 %.0.copyload to i64
  %15 = tail call fastcc zeroext i1 @doit(ptr noundef %0, i64 noundef %14, ptr noundef nonnull %13, i64 noundef %3)
  br i1 %15, label %16, label %17

16:                                               ; preds = %12
  store i64 %14, ptr %1, align 8, !tbaa !8
  br label %17

17:                                               ; preds = %12, %16
  ret i1 %15
}